target datalayout = "e-m:e-p270:32:32-p271:32:32-p272:64:64-i64:64-i128:128-f80:128-n8:16:32:64-S128"
target triple = "x86_64-pc-linux-gnu"

%"class.duckdb_re2::Regexp" = type { i8, i8, i16, i16, i16, %union.anon, ptr, %union.anon.0 }
%union.anon = type { ptr }
%union.anon.0 = type { %struct.anon.1 }
%struct.anon.1 = type { i32, ptr }
%"struct.std::_Rb_tree_header" = type { %"struct.std::_Rb_tree_node_base", i64 }
%"struct.std::_Rb_tree_node_base" = type { i32, ptr, ptr, ptr }
%"class.duckdb_re2::MutexLock" = type { ptr }
%"struct.duckdb_re2::RefStorage" = type { %"class.duckdb_re2::Mutex", %"class.std::map" }
%"class.duckdb_re2::Mutex" = type { %union.pthread_rwlock_t }
%union.pthread_rwlock_t = type { %struct.__pthread_rwlock_arch_t }
%struct.__pthread_rwlock_arch_t = type { i32, i32, i32, i32, i32, i32, i32, i32, i8, [7 x i8], i64, i32 }
%"class.std::map" = type { %"class.std::_Rb_tree.8" }
%"class.std::_Rb_tree.8" = type { %"struct.std::_Rb_tree<duckdb_re2::Regexp *, std::pair<duckdb_re2::Regexp *const, int>, std::_Select1st<std::pair<duckdb_re2::Regexp *const, int>>, std::less<duckdb_re2::Regexp *>>::_Rb_tree_impl" }
%"struct.std::_Rb_tree<duckdb_re2::Regexp *, std::pair<duckdb_re2::Regexp *const, int>, std::_Select1st<std::pair<duckdb_re2::Regexp *const, int>>, std::less<duckdb_re2::Regexp *>>::_Rb_tree_impl" = type { [8 x i8], %"struct.std::_Rb_tree_header" }

@_ZN10duckdb_re2L11ref_storageE = internal global [104 x i8] zeroinitializer, align 8
@.str.4 = private unnamed_addr constant [20 x i8] c"RE2 pthread failure\00", align 1
@_ZTISt13runtime_error = external constant ptr

; Function Attrs: inlinehint mustprogress uwtable
define linkonce_odr hidden void @_ZN10duckdb_re25Mutex4LockEv(ptr noundef nonnull align 8 dereferenceable(56) %0) #2 comdat align 2 personality ptr @__gxx_personality_v0 {
  %2 = alloca ptr, align 8
  %3 = alloca ptr, align 8
  %4 = alloca i32, align 4
  store ptr %0, ptr %2, align 8, !tbaa !54
  %5 = load ptr, ptr %2, align 8
  br label %6

6:                                                ; preds = %1
  %7 = getelementptr inbounds nuw %"class.duckdb_re2::Mutex", ptr %5, i32 0, i32 0
  %8 = call i32 @pthread_rwlock_wrlock(ptr noundef %7) #18
  %9 = icmp ne i32 %8, 0
  br i1 %9, label %10, label %17

10:                                               ; preds = %6
  %11 = call ptr @__cxa_allocate_exception(i64 16) #18
  invoke void @_ZNSt13runtime_errorC1EPKc(ptr noundef nonnull align 8 dereferenceable(16) %11, ptr noundef @.str.4)
          to label %12 unwind label %13

12:                                               ; preds = %10
  call void @__cxa_throw(ptr %11, ptr @_ZTISt13runtime_error, ptr @_ZNSt13runtime_errorD1Ev) #21
  unreachable

13:                                               ; preds = %10
  %14 = landingpad { ptr, i32 }
          cleanup
  %15 = extractvalue { ptr, i32 } %14, 0
  store ptr %15, ptr %3, align 8
  %16 = extractvalue { ptr, i32 } %14, 1
  store i32 %16, ptr %4, align 4
  call void @__cxa_free_exception(ptr %11) #18
  br label %19

17:                                               ; preds = %6
  br label %18

18:                                               ; preds = %17
  ret void

19:                                               ; preds = %13
  %20 = load ptr, ptr %3, align 8
  %21 = load i32, ptr %4, align 4
  %22 = insertvalue { ptr, i32 } poison, ptr %20, 0
  %23 = insertvalue { ptr, i32 } %22, i32 %21, 1
  resume { ptr, i32 } %23
}

; Function Attrs: inlinehint mustprogress nounwind uwtable
define internal noundef ptr @_ZN10duckdb_re2L7ref_mapEv() #7 {
  ret ptr getelementptr inbounds nuw (%"struct.duckdb_re2::RefStorage", ptr @_ZN10duckdb_re2L11ref_storageE, i32 0, i32 1)
}

; Function Attrs: mustprogress uwtable
define linkonce_odr hidden void @_ZN10duckdb_re29MutexLockC2EPNS_5MutexE(ptr noundef nonnull align 8 dereferenceable(8) %0, ptr noundef %1) unnamed_addr #4 comdat align 2 {
  %3 = alloca ptr, align 8
  %4 = alloca ptr, align 8
  store ptr %0, ptr %3, align 8, !tbaa !52
  store ptr %1, ptr %4, align 8, !tbaa !54
  %5 = load ptr, ptr %3, align 8
  %6 = getelementptr inbounds nuw %"class.duckdb_re2::MutexLock", ptr %5, i32 0, i32 0
  %7 = load ptr, ptr %4, align 8, !tbaa !54
  store ptr %7, ptr %6, align 8, !tbaa !56
  %8 = getelementptr inbounds nuw %"class.duckdb_re2::MutexLock", ptr %5, i32 0, i32 0
  %9 = load ptr, ptr %8, align 8, !tbaa !56
  call void @_ZN10duckdb_re25Mutex4LockEv(ptr noundef nonnull align 8 dereferenceable(56) %9)
  ret void
}

; Function Attrs: inlinehint mustprogress nounwind uwtable
define internal noundef ptr @_ZN10duckdb_re2L9ref_mutexEv() #7 {
  ret ptr @_ZN10duckdb_re2L11ref_storageE
}

; Function Attrs: mustprogress uwtable
define hidden noundef i32 @_ZN10duckdb_re26Regexp3RefEv(ptr noundef nonnull align 8 dereferenceable(40) %0) #4 align 2 personality ptr @__gxx_personality_v0 {
  %2 = alloca i32, align 4
  %3 = alloca ptr, align 8
  %4 = alloca %"class.duckdb_re2::MutexLock", align 8
  %5 = alloca ptr, align 8
  %6 = alloca i32, align 4
  %7 = alloca ptr, align 8
  store ptr %0, ptr %3, align 8, !tbaa !3
  %8 = load ptr, ptr %3, align 8
  %9 = getelementptr inbounds nuw %"class.duckdb_re2::Regexp", ptr %8, i32 0, i32 3
  %10 = load i16, ptr %9, align 4, !tbaa !17
  %11 = zext i16 %10 to i32
  %12 = icmp slt i32 %11, 65535
  br i1 %12, label %13, label %17

13:                                               ; preds = %1
  %14 = getelementptr inbounds nuw %"class.duckdb_re2::Regexp", ptr %8, i32 0, i32 3
  %15 = load i16, ptr %14, align 4, !tbaa !17
  %16 = zext i16 %15 to i32
  store i32 %16, ptr %2, align 4
  br label %33

17:                                               ; preds = %1
  call void @llvm.lifetime.start.p0(i64 8, ptr %4) #18
  %18 = call noundef ptr @_ZN10duckdb_re2L9ref_mutexEv()
  call void @_ZN10duckdb_re29MutexLockC2EPNS_5MutexE(ptr noundef nonnull align 8 dereferenceable(8) %4, ptr noundef %18)
  %19 = invoke noundef ptr @_ZN10duckdb_re2L7ref_mapEv()
          to label %20 unwind label %24

20:                                               ; preds = %17
  call void @llvm.lifetime.start.p0(i64 8, ptr %7) #18
  store ptr %8, ptr %7, align 8, !tbaa !3
  %21 = invoke noundef nonnull align 4 dereferenceable(4) ptr @_ZNSt3mapIPN10duckdb_re26RegexpEiSt4lessIS2_ESaISt4pairIKS2_iEEEixEOS2_(ptr noundef nonnull align 8 dereferenceable(48) %19, ptr noundef nonnull align 8 dereferenceable(8) %7)
          to label %22 unwind label %28

22:                                               ; preds = %20
  %23 = load i32, ptr %21, align 4, !tbaa !29
  store i32 %23, ptr %2, align 4
  call void @llvm.lifetime.end.p0(i64 8, ptr %7) #18
  call void @_ZN10duckdb_re29MutexLockD2Ev(ptr noundef nonnull align 8 dereferenceable(8) %4) #18
  call void @llvm.lifetime.end.p0(i64 8, ptr %4) #18
  br label %33

24:                                               ; preds = %17
  %25 = landingpad { ptr, i32 }
          cleanup
  %26 = extractvalue { ptr, i32 } %25, 0
  store ptr %26, ptr %5, align 8
  %27 = extractvalue { ptr, i32 } %25, 1
  store i32 %27, ptr %6, align 4
  br label %32

28:                                               ; preds = %20
  %29 = landingpad { ptr, i32 }
          cleanup
  %30 = extractvalue { ptr, i32 } %29, 0
  store ptr %30, ptr %5, align 8
  %31 = extractvalue { ptr, i32 } %29, 1
  store i32 %31, ptr %6, align 4
  call void @llvm.lifetime.end.p0(i64 8, ptr %7) #18
  br label %32

32:                                               ; preds = %28, %24
  call void @_ZN10duckdb_re29MutexLockD2Ev(ptr noundef nonnull align 8 dereferenceable(8) %4) #18
  call void @llvm.lifetime.end.p0(i64 8, ptr %4) #18
  br label %35

33:                                               ; preds = %22, %13
  %34 = load i32, ptr %2, align 4
  ret i32 %34

35:                                               ; preds = %32
  %36 = load ptr, ptr %5, align 8
  %37 = load i32, ptr %6, align 4
  %38 = insertvalue { ptr, i32 } poison, ptr %36, 0
  %39 = insertvalue { ptr, i32 } %38, i32 %37, 1
  resume { ptr, i32 } %39
}