; Function Attrs: mustprogress uwtable
define hidden noundef i32 @_ZN10duckdb_re26Regexp3RefEv(ptr noundef nonnull align 8 dereferenceable(40) %0) local_unnamed_addr #7 align 2 personality ptr @__gxx_personality_v0 {
  %2 = alloca %"class.duckdb_re2::MutexLock", align 8
  %3 = alloca ptr, align 8
  %4 = getelementptr inbounds nuw i8, ptr %0, i64 4
  %5 = load i16, ptr %4, align 4, !tbaa !12
  %.not = icmp eq i16 %5, -1
  br i1 %.not, label %8, label %6

6:                                                ; preds = %1
  %7 = zext i16 %5 to i32
  br label %29

8:                                                ; preds = %1
  call void @llvm.lifetime.start.p0(i64 8, ptr nonnull %2) #27
  store ptr @_ZN10duckdb_re2L11ref_storageE, ptr %2, align 8, !tbaa !38
  %9 = tail call i32 @pthread_rwlock_wrlock(ptr noundef nonnull align 8 dereferenceable(56) @_ZN10duckdb_re2L11ref_storageE) #27
  %.not.i.i = icmp eq i32 %9, 0
  br i1 %.not.i.i, label %_ZN10duckdb_re29MutexLockC2EPNS_5MutexE.exit, label %10

10:                                               ; preds = %8
  %11 = tail call ptr @__cxa_allocate_exception(i64 16) #27
  invoke void @_ZNSt13runtime_errorC1EPKc(ptr noundef nonnull align 8 dereferenceable(16) %11, ptr noundef nonnull @.str.4)
          to label %12 unwind label %13

12:                                               ; preds = %10
  tail call void @__cxa_throw(ptr nonnull %11, ptr nonnull @_ZTISt13runtime_error, ptr nonnull @_ZNSt13runtime_errorD1Ev) #30
  unreachable

common.resume:                                    ; preds = %27, %13
  %common.resume.op = phi { ptr, i32 } [ %14, %13 ], [ %28, %27 ]
  resume { ptr, i32 } %common.resume.op

13:                                               ; preds = %10
  %14 = landingpad { ptr, i32 }
          cleanup
  tail call void @__cxa_free_exception(ptr nonnull %11) #27
  br label %common.resume

_ZN10duckdb_re29MutexLockC2EPNS_5MutexE.exit:     ; preds = %8
  call void @llvm.lifetime.start.p0(i64 8, ptr nonnull %3) #27
  store ptr %0, ptr %3, align 8, !tbaa !41
  %15 = invoke noundef nonnull align 4 dereferenceable(4) ptr @_ZNSt3mapIPN10duckdb_re26RegexpEiSt4lessIS2_ESaISt4pairIKS2_iEEEixEOS2_(ptr noundef nonnull align 8 dereferenceable(48) getelementptr inbounds nuw (i8, ptr @_ZN10duckdb_re2L11ref_storageE, i64 56), ptr noundef nonnull align 8 dereferenceable(8) %3)
          to label %16 unwind label %27

16:                                               ; preds = %_ZN10duckdb_re29MutexLockC2EPNS_5MutexE.exit
  %17 = load i32, ptr %15, align 4, !tbaa !42
  call void @llvm.lifetime.end.p0(i64 8, ptr nonnull %3) #27
  %18 = call i32 @pthread_rwlock_unlock(ptr noundef nonnull align 8 dereferenceable(56) @_ZN10duckdb_re2L11ref_storageE) #27
  %.not.i.i4 = icmp eq i32 %18, 0
  br i1 %.not.i.i4, label %_ZN10duckdb_re29MutexLockD2Ev.exit, label %19

19:                                               ; preds = %16
  %20 = call ptr @__cxa_allocate_exception(i64 16) #27
  invoke void @_ZNSt13runtime_errorC1EPKc(ptr noundef nonnull align 8 dereferenceable(16) %20, ptr noundef nonnull @.str.4)
          to label %21 unwind label %22

21:                                               ; preds = %19
  invoke void @__cxa_throw(ptr nonnull %20, ptr nonnull @_ZTISt13runtime_error, ptr nonnull @_ZNSt13runtime_errorD1Ev) #30
          to label %.noexc.i unwind label %24

.noexc.i:                                         ; preds = %21
  unreachable

22:                                               ; preds = %19
  %23 = landingpad { ptr, i32 }
          catch ptr null
  call void @__cxa_free_exception(ptr nonnull %20) #27
  br label %.body.i

24:                                               ; preds = %21
  %25 = landingpad { ptr, i32 }
          catch ptr null
  br label %.body.i

.body.i:                                          ; preds = %24, %22
  %eh.lpad-body.i = phi { ptr, i32 } [ %25, %24 ], [ %23, %22 ]
  %26 = extractvalue { ptr, i32 } %eh.lpad-body.i, 0
  call void @__clang_call_terminate(ptr %26) #29
  unreachable

_ZN10duckdb_re29MutexLockD2Ev.exit:               ; preds = %16
  call void @llvm.lifetime.end.p0(i64 8, ptr nonnull %2) #27
  br label %29

27:                                               ; preds = %_ZN10duckdb_re29MutexLockC2EPNS_5MutexE.exit
  %28 = landingpad { ptr, i32 }
          cleanup
  call void @llvm.lifetime.end.p0(i64 8, ptr nonnull %3) #27
  call void @_ZN10duckdb_re29MutexLockD2Ev(ptr noundef nonnull align 8 dereferenceable(8) %2) #27
  call void @llvm.lifetime.end.p0(i64 8, ptr nonnull %2) #27
  br label %common.resume

29:                                               ; preds = %_ZN10duckdb_re29MutexLockD2Ev.exit, %6
  %.0 = phi i32 [ %7, %6 ], [ %17, %_ZN10duckdb_re29MutexLockD2Ev.exit ]
  ret i32 %.0
}